target datalayout = "e-m:e-p270:32:32-p271:32:32-p272:64:64-i64:64-i128:128-f80:128-n8:16:32:64-S128"
target triple = "x86_64-pc-linux-gnu"

%struct.lexbor_bst_entry = type { ptr, ptr, ptr, ptr, ptr, i64 }

; Function Attrs: nounwind uwtable
define hidden ptr @lexbor_bst_remove_close(ptr noundef %0, ptr noundef %1, i64 noundef %2, ptr noundef %3) #0 {
  %5 = alloca ptr, align 8
  %6 = alloca ptr, align 8
  %7 = alloca ptr, align 8
  %8 = alloca i64, align 8
  %9 = alloca ptr, align 8
  %10 = alloca ptr, align 8
  %11 = alloca ptr, align 8
  store ptr %0, ptr %6, align 8
  store ptr %1, ptr %7, align 8
  store i64 %2, ptr %8, align 8
  store ptr %3, ptr %9, align 8
  %12 = load ptr, ptr %7, align 8
  %13 = load ptr, ptr %12, align 8
  store ptr %13, ptr %10, align 8
  store ptr null, ptr %11, align 8
  br label %14

14:                                               ; preds = %52, %4
  %15 = load ptr, ptr %10, align 8
  %16 = icmp ne ptr %15, null
  br i1 %16, label %17, label %53

17:                                               ; preds = %14
  %18 = load ptr, ptr %10, align 8
  %19 = getelementptr inbounds %struct.lexbor_bst_entry, ptr %18, i32 0, i32 5
  %20 = load i64, ptr %19, align 8
  %21 = load i64, ptr %8, align 8
  %22 = icmp eq i64 %20, %21
  br i1 %22, label %23, label %36

23:                                               ; preds = %17
  %24 = load ptr, ptr %9, align 8
  %25 = icmp ne ptr %24, null
  br i1 %25, label %26, label %31

26:                                               ; preds = %23
  %27 = load ptr, ptr %10, align 8
  %28 = getelementptr inbounds %struct.lexbor_bst_entry, ptr %27, i32 0, i32 5
  %29 = load i64, ptr %28, align 8
  %30 = load ptr, ptr %9, align 8
  store i64 %29, ptr %30, align 8
  br label %31

31:                                               ; preds = %26, %23
  %32 = load ptr, ptr %6, align 8
  %33 = load ptr, ptr %10, align 8
  %34 = load ptr, ptr %7, align 8
  %35 = call ptr @lexbor_bst_remove_by_pointer(ptr noundef %32, ptr noundef %33, ptr noundef %34)
  store ptr %35, ptr %5, align 8
  br label %75

36:                                               ; preds = %17
  %37 = load i64, ptr %8, align 8
  %38 = load ptr, ptr %10, align 8
  %39 = getelementptr inbounds %struct.lexbor_bst_entry, ptr %38, i32 0, i32 5
  %40 = load i64, ptr %39, align 8
  %41 = icmp ugt i64 %37, %40
  br i1 %41, label %42, label %46

42:                                               ; preds = %36
  %43 = load ptr, ptr %10, align 8
  %44 = getelementptr inbounds %struct.lexbor_bst_entry, ptr %43, i32 0, i32 1
  %45 = load ptr, ptr %44, align 8
  store ptr %45, ptr %10, align 8
  br label %51

46:                                               ; preds = %36
  %47 = load ptr, ptr %10, align 8
  store ptr %47, ptr %11, align 8
  %48 = load ptr, ptr %10, align 8
  %49 = getelementptr inbounds %struct.lexbor_bst_entry, ptr %48, i32 0, i32 2
  %50 = load ptr, ptr %49, align 8
  store ptr %50, ptr %10, align 8
  br label %51

51:                                               ; preds = %46, %42
  br label %52

52:                                               ; preds = %51
  br label %14

53:                                               ; preds = %14
  %54 = load ptr, ptr %11, align 8
  %55 = icmp ne ptr %54, null
  br i1 %55, label %56, label %69

56:                                               ; preds = %53
  %57 = load ptr, ptr %9, align 8
  %58 = icmp ne ptr %57, null
  br i1 %58, label %59, label %64

59:                                               ; preds = %56
  %60 = load ptr, ptr %11, align 8
  %61 = getelementptr inbounds %struct.lexbor_bst_entry, ptr %60, i32 0, i32 5
  %62 = load i64, ptr %61, align 8
  %63 = load ptr, ptr %9, align 8
  store i64 %62, ptr %63, align 8
  br label %64

64:                                               ; preds = %59, %56
  %65 = load ptr, ptr %6, align 8
  %66 = load ptr, ptr %11, align 8
  %67 = load ptr, ptr %7, align 8
  %68 = call ptr @lexbor_bst_remove_by_pointer(ptr noundef %65, ptr noundef %66, ptr noundef %67)
  store ptr %68, ptr %5, align 8
  br label %75

69:                                               ; preds = %53
  %70 = load ptr, ptr %9, align 8
  %71 = icmp ne ptr %70, null
  br i1 %71, label %72, label %74

72:                                               ; preds = %69
  %73 = load ptr, ptr %9, align 8
  store i64 0, ptr %73, align 8
  br label %74

74:                                               ; preds = %72, %69
  store ptr null, ptr %5, align 8
  br label %75

75:                                               ; preds = %74, %64, %31
  %76 = load ptr, ptr %5, align 8
  ret ptr %76
}