; Function Attrs: nounwind uwtable
define hidden ptr @lexbor_bst_remove_close(ptr nocapture noundef %0, ptr nocapture noundef %1, i64 noundef %2, ptr noundef writeonly %3) local_unnamed_addr #0 {
  %.02438 = load ptr, ptr %1, align 8
  %.not39 = icmp eq ptr %.02438, null
  br i1 %.not39, label %._crit_edge.thread, label %.lr.ph

.lr.ph:                                           ; preds = %4, %12
  %.02441 = phi ptr [ %.024, %12 ], [ %.02438, %4 ]
  %.040 = phi ptr [ %.1, %12 ], [ null, %4 ]
  %5 = getelementptr inbounds i8, ptr %.02441, i64 40
  %6 = load i64, ptr %5, align 8
  %7 = icmp eq i64 %6, %2
  br i1 %7, label %8, label %12

8:                                                ; preds = %.lr.ph
  %.not35 = icmp eq ptr %3, null
  br i1 %.not35, label %10, label %9

9:                                                ; preds = %8
  store i64 %2, ptr %3, align 8
  br label %10

10:                                               ; preds = %9, %8
  %11 = tail call ptr @lexbor_bst_remove_by_pointer(ptr noundef %0, ptr noundef nonnull %.02441, ptr noundef nonnull %1)
  br label %21

12:                                               ; preds = %.lr.ph
  %13 = icmp ult i64 %6, %2
  %.125.in.v = select i1 %13, i64 8, i64 16
  %.125.in = getelementptr inbounds i8, ptr %.02441, i64 %.125.in.v
  %.1 = select i1 %13, ptr %.040, ptr %.02441
  %.024 = load ptr, ptr %.125.in, align 8
  %.not = icmp eq ptr %.024, null
  br i1 %.not, label %._crit_edge, label %.lr.ph

._crit_edge:                                      ; preds = %12
  %.not32 = icmp eq ptr %.1, null
  br i1 %.not32, label %._crit_edge.thread, label %14

14:                                               ; preds = %._crit_edge
  %.not34 = icmp eq ptr %3, null
  br i1 %.not34, label %18, label %15

15:                                               ; preds = %14
  %16 = getelementptr inbounds i8, ptr %.1, i64 40
  %17 = load i64, ptr %16, align 8
  store i64 %17, ptr %3, align 8
  br label %18

18:                                               ; preds = %15, %14
  %19 = tail call ptr @lexbor_bst_remove_by_pointer(ptr noundef %0, ptr noundef nonnull %.1, ptr noundef nonnull %1)
  br label %21

._crit_edge.thread:                               ; preds = %4, %._crit_edge
  %.not33 = icmp eq ptr %3, null
  br i1 %.not33, label %21, label %20

20:                                               ; preds = %._crit_edge.thread
  store i64 0, ptr %3, align 8
  br label %21

21:                                               ; preds = %._crit_edge.thread, %20, %18, %10
  %.026 = phi ptr [ %11, %10 ], [ %19, %18 ], [ null, %20 ], [ null, %._crit_edge.thread ]
  ret ptr %.026
}